; Function Attrs: mustprogress uwtable
define noundef nonnull align 8 dereferenceable(40) ptr @_ZN32pxrInternal_v0_24__pxrReserved__17SdfPathExpression19ExpressionReference6WeakerEv() local_unnamed_addr #0 align 2 personality ptr @__gxx_personality_v0 {
  %1 = alloca %"class.std::allocator", align 1
  %2 = load atomic i8, ptr @_ZGVZN32pxrInternal_v0_24__pxrReserved__17SdfPathExpression19ExpressionReference6WeakerEvE9theWeaker acquire, align 8
  %3 = icmp eq i8 %2, 0
  br i1 %3, label %4, label %11, !prof !4

4:                                                ; preds = %0
  %5 = tail call i32 @__cxa_guard_acquire(ptr nonnull @_ZGVZN32pxrInternal_v0_24__pxrReserved__17SdfPathExpression19ExpressionReference6WeakerEvE9theWeaker) #24
  %.not = icmp eq i32 %5, 0
  br i1 %.not, label %11, label %6

6:                                                ; preds = %4
  %7 = invoke noalias noundef nonnull dereferenceable(40) ptr @_Znwm(i64 noundef 40) #25
          to label %8 unwind label %13

8:                                                ; preds = %6
  %9 = getelementptr inbounds nuw i8, ptr %7, i64 8
  store i64 0, ptr %7, align 4
  call void @_ZNSaIcEC1Ev(ptr noundef nonnull align 1 dereferenceable(1) %1) #24
  invoke void @_ZNSt7__cxx1112basic_stringIcSt11char_traitsIcESaIcEEC2IS3_EEPKcRKS3_(ptr noundef nonnull align 8 dereferenceable(32) %9, ptr noundef nonnull @.str.4, ptr noundef nonnull align 1 dereferenceable(1) %1)
          to label %10 unwind label %15

10:                                               ; preds = %8
  call void @_ZNSaIcED1Ev(ptr noundef nonnull align 1 dereferenceable(1) %1) #24
  store ptr %7, ptr @_ZZN32pxrInternal_v0_24__pxrReserved__17SdfPathExpression19ExpressionReference6WeakerEvE9theWeaker, align 8
  call void @__cxa_guard_release(ptr nonnull @_ZGVZN32pxrInternal_v0_24__pxrReserved__17SdfPathExpression19ExpressionReference6WeakerEvE9theWeaker) #24
  br label %11

11:                                               ; preds = %10, %4, %0
  %12 = load ptr, ptr @_ZZN32pxrInternal_v0_24__pxrReserved__17SdfPathExpression19ExpressionReference6WeakerEvE9theWeaker, align 8
  ret ptr %12

13:                                               ; preds = %6
  %14 = landingpad { ptr, i32 }
          cleanup
  br label %17

15:                                               ; preds = %8
  %16 = landingpad { ptr, i32 }
          cleanup
  call void @_ZNSaIcED1Ev(ptr noundef nonnull align 1 dereferenceable(1) %1) #24
  call void @_ZN32pxrInternal_v0_24__pxrReserved__7SdfPathD2Ev(ptr noundef nonnull align 4 dereferenceable(8) %7) #24
  call void @_ZdlPvm(ptr noundef nonnull %7, i64 noundef 40) #26
  br label %17

17:                                               ; preds = %15, %13
  %.pn = phi { ptr, i32 } [ %16, %15 ], [ %14, %13 ]
  call void @__cxa_guard_abort(ptr nonnull @_ZGVZN32pxrInternal_v0_24__pxrReserved__17SdfPathExpression19ExpressionReference6WeakerEvE9theWeaker) #24
  resume { ptr, i32 } %.pn
}